target datalayout = "e-m:e-p270:32:32-p271:32:32-p272:64:64-i64:64-i128:128-f80:128-n8:16:32:64-S128"
target triple = "x86_64-pc-linux-gnu"

%struct.If_Man_t_ = type { ptr, ptr, ptr, ptr, ptr, ptr, ptr, ptr, [5 x i32], i32, float, float, float, float, i32, float, i32, i32, [4 x ptr], ptr, i32, i32, i32, ptr, [3 x [32 x i32]], i32, i32, i32, ptr, ptr, ptr, ptr, ptr, ptr, ptr, i32, i32, i32, [16 x i32], i32, i32, i32, i32, ptr, ptr, ptr, ptr, ptr, i32, i32, [32 x i32], [32 x i32], i32, i32, i32, i32, ptr, [16 x ptr], [16 x ptr], [16 x ptr], [16 x ptr], [16 x ptr], [16 x ptr], [16 x ptr], ptr, ptr, ptr, ptr, [32 x i8], i32, i32, i32, [6 x i64], [2 x i32], [2 x i32], ptr, [15 x i32], ptr, ptr, ptr, [16 x i32], ptr, ptr, ptr, ptr, [2 x i32], [2 x i32], [2 x ptr], ptr }
%struct.Vec_Ptr_t_ = type { i32, i32, ptr }
%struct.If_Obj_t_ = type { i32, i32, i32, i32, i32, i32, ptr, ptr, ptr, float, float, float, %union.anon, ptr, %struct.If_Cut_t_ }
%union.anon = type { ptr }
%struct.If_Cut_t_ = type <{ float, float, float, float, i32, i32, i32, i48, [0 x i32] }>
%struct.If_Par_t_ = type { i32, i32, i32, i32, i32, i32, float, float, i32, i32, i32, i32, i32, i32, i32, i32, i32, i32, i32, i32, i32, i32, i32, i32, i32, i32, i32, i32, i32, i32, i32, i32, i32, i32, i32, i32, i32, i32, i32, i32, i32, i32, i32, i32, i32, i32, i32, i32, i32, ptr, float, i32, i32, i32, i32, i32, i32, i32, i32, i32, i32, i32, i32, i32, i32, float, float, float, ptr, ptr, ptr, ptr, ptr, ptr, ptr, ptr, ptr }

; Function Attrs: nounwind uwtable
define internal i32 @If_ObjFaninC0(ptr noundef %0) #0 {
  %2 = alloca ptr, align 8
  store ptr %0, ptr %2, align 8
  %3 = load ptr, ptr %2, align 8
  %4 = load i32, ptr %3, align 8
  %5 = lshr i32 %4, 4
  %6 = and i32 %5, 1
  ret i32 %6
}

; Function Attrs: nounwind uwtable
define internal ptr @If_ObjFanin0(ptr noundef %0) #0 {
  %2 = alloca ptr, align 8
  store ptr %0, ptr %2, align 8
  %3 = load ptr, ptr %2, align 8
  %4 = getelementptr inbounds %struct.If_Obj_t_, ptr %3, i32 0, i32 6
  %5 = load ptr, ptr %4, align 8
  ret ptr %5
}

; Function Attrs: nounwind uwtable
define internal ptr @Vec_PtrEntry(ptr noundef %0, i32 noundef %1) #0 {
  %3 = alloca ptr, align 8
  %4 = alloca i32, align 4
  store ptr %0, ptr %3, align 8
  store i32 %1, ptr %4, align 4
  %5 = load ptr, ptr %3, align 8
  %6 = getelementptr inbounds %struct.Vec_Ptr_t_, ptr %5, i32 0, i32 2
  %7 = load ptr, ptr %6, align 8
  %8 = load i32, ptr %4, align 4
  %9 = sext i32 %8 to i64
  %10 = getelementptr inbounds ptr, ptr %7, i64 %9
  %11 = load ptr, ptr %10, align 8
  ret ptr %11
}

; Function Attrs: nounwind uwtable
define internal i32 @If_ManCoNum(ptr noundef %0) #0 {
  %2 = alloca ptr, align 8
  store ptr %0, ptr %2, align 8
  %3 = load ptr, ptr %2, align 8
  %4 = getelementptr inbounds %struct.If_Man_t_, ptr %3, i32 0, i32 8
  %5 = getelementptr inbounds [5 x i32], ptr %4, i64 0, i64 3
  %6 = load i32, ptr %5, align 4
  ret i32 %6
}

; Function Attrs: nounwind uwtable
define i32 @If_ManCountSpecialPos(ptr noundef %0) #0 {
  %2 = alloca ptr, align 8
  %3 = alloca ptr, align 8
  %4 = alloca i32, align 4
  %5 = alloca i32, align 4
  store ptr %0, ptr %2, align 8
  store i32 0, ptr %5, align 4
  %6 = load ptr, ptr %2, align 8
  %7 = getelementptr inbounds %struct.If_Man_t_, ptr %6, i32 0, i32 1
  %8 = load ptr, ptr %7, align 8
  %9 = getelementptr inbounds %struct.If_Par_t_, ptr %8, i32 0, i32 62
  %10 = load i32, ptr %9, align 8
  store i32 %10, ptr %4, align 4
  br label %11

11:                                               ; preds = %36, %1
  %12 = load i32, ptr %4, align 4
  %13 = load ptr, ptr %2, align 8
  %14 = call i32 @If_ManCoNum(ptr noundef %13)
  %15 = load ptr, ptr %2, align 8
  %16 = getelementptr inbounds %struct.If_Man_t_, ptr %15, i32 0, i32 1
  %17 = load ptr, ptr %16, align 8
  %18 = getelementptr inbounds %struct.If_Par_t_, ptr %17, i32 0, i32 60
  %19 = load i32, ptr %18, align 8
  %20 = sub nsw i32 %14, %19
  %21 = icmp slt i32 %12, %20
  br i1 %21, label %22, label %28

22:                                               ; preds = %11
  %23 = load ptr, ptr %2, align 8
  %24 = getelementptr inbounds %struct.If_Man_t_, ptr %23, i32 0, i32 4
  %25 = load ptr, ptr %24, align 8
  %26 = load i32, ptr %4, align 4
  %27 = call ptr @Vec_PtrEntry(ptr noundef %25, i32 noundef %26)
  store ptr %27, ptr %3, align 8
  br label %28

28:                                               ; preds = %22, %11
  %29 = phi i1 [ false, %11 ], [ true, %22 ]
  br i1 %29, label %30, label %39

30:                                               ; preds = %28
  %31 = load ptr, ptr %3, align 8
  %32 = call ptr @If_ObjFanin0(ptr noundef %31)
  %33 = load i32, ptr %32, align 8
  %34 = and i32 %33, -257
  %35 = or i32 %34, 0
  store i32 %35, ptr %32, align 8
  br label %36

36:                                               ; preds = %30
  %37 = load i32, ptr %4, align 4
  %38 = add nsw i32 %37, 1
  store i32 %38, ptr %4, align 4
  br label %11, !llvm.loop !22

39:                                               ; preds = %28
  %40 = load ptr, ptr %2, align 8
  %41 = getelementptr inbounds %struct.If_Man_t_, ptr %40, i32 0, i32 1
  %42 = load ptr, ptr %41, align 8
  %43 = getelementptr inbounds %struct.If_Par_t_, ptr %42, i32 0, i32 62
  %44 = load i32, ptr %43, align 8
  store i32 %44, ptr %4, align 4
  br label %45

45:                                               ; preds = %75, %39
  %46 = load i32, ptr %4, align 4
  %47 = load ptr, ptr %2, align 8
  %48 = call i32 @If_ManCoNum(ptr noundef %47)
  %49 = load ptr, ptr %2, align 8
  %50 = getelementptr inbounds %struct.If_Man_t_, ptr %49, i32 0, i32 1
  %51 = load ptr, ptr %50, align 8
  %52 = getelementptr inbounds %struct.If_Par_t_, ptr %51, i32 0, i32 60
  %53 = load i32, ptr %52, align 8
  %54 = sub nsw i32 %48, %53
  %55 = icmp slt i32 %46, %54
  br i1 %55, label %56, label %62

56:                                               ; preds = %45
  %57 = load ptr, ptr %2, align 8
  %58 = getelementptr inbounds %struct.If_Man_t_, ptr %57, i32 0, i32 4
  %59 = load ptr, ptr %58, align 8
  %60 = load i32, ptr %4, align 4
  %61 = call ptr @Vec_PtrEntry(ptr noundef %59, i32 noundef %60)
  store ptr %61, ptr %3, align 8
  br label %62

62:                                               ; preds = %56, %45
  %63 = phi i1 [ false, %45 ], [ true, %56 ]
  br i1 %63, label %64, label %78

64:                                               ; preds = %62
  %65 = load ptr, ptr %3, align 8
  %66 = call i32 @If_ObjFaninC0(ptr noundef %65)
  %67 = icmp ne i32 %66, 0
  br i1 %67, label %74, label %68

68:                                               ; preds = %64
  %69 = load ptr, ptr %3, align 8
  %70 = call ptr @If_ObjFanin0(ptr noundef %69)
  %71 = load i32, ptr %70, align 8
  %72 = and i32 %71, -257
  %73 = or i32 %72, 256
  store i32 %73, ptr %70, align 8
  br label %74

74:                                               ; preds = %68, %64
  br label %75

75:                                               ; preds = %74
  %76 = load i32, ptr %4, align 4
  %77 = add nsw i32 %76, 1
  store i32 %77, ptr %4, align 4
  br label %45, !llvm.loop !23

78:                                               ; preds = %62
  %79 = load ptr, ptr %2, align 8
  %80 = getelementptr inbounds %struct.If_Man_t_, ptr %79, i32 0, i32 1
  %81 = load ptr, ptr %80, align 8
  %82 = getelementptr inbounds %struct.If_Par_t_, ptr %81, i32 0, i32 62
  %83 = load i32, ptr %82, align 8
  store i32 %83, ptr %4, align 4
  br label %84

84:                                               ; preds = %116, %78
  %85 = load i32, ptr %4, align 4
  %86 = load ptr, ptr %2, align 8
  %87 = call i32 @If_ManCoNum(ptr noundef %86)
  %88 = load ptr, ptr %2, align 8
  %89 = getelementptr inbounds %struct.If_Man_t_, ptr %88, i32 0, i32 1
  %90 = load ptr, ptr %89, align 8
  %91 = getelementptr inbounds %struct.If_Par_t_, ptr %90, i32 0, i32 60
  %92 = load i32, ptr %91, align 8
  %93 = sub nsw i32 %87, %92
  %94 = icmp slt i32 %85, %93
  br i1 %94, label %95, label %101

95:                                               ; preds = %84
  %96 = load ptr, ptr %2, align 8
  %97 = getelementptr inbounds %struct.If_Man_t_, ptr %96, i32 0, i32 4
  %98 = load ptr, ptr %97, align 8
  %99 = load i32, ptr %4, align 4
  %100 = call ptr @Vec_PtrEntry(ptr noundef %98, i32 noundef %99)
  store ptr %100, ptr %3, align 8
  br label %101

101:                                              ; preds = %95, %84
  %102 = phi i1 [ false, %84 ], [ true, %95 ]
  br i1 %102, label %103, label %119

103:                                              ; preds = %101
  %104 = load ptr, ptr %3, align 8
  %105 = call i32 @If_ObjFaninC0(ptr noundef %104)
  %106 = icmp ne i32 %105, 0
  br i1 %106, label %107, label %115

107:                                              ; preds = %103
  %108 = load ptr, ptr %3, align 8
  %109 = call ptr @If_ObjFanin0(ptr noundef %108)
  %110 = load i32, ptr %109, align 8
  %111 = lshr i32 %110, 8
  %112 = and i32 %111, 1
  %113 = load i32, ptr %5, align 4
  %114 = add nsw i32 %113, %112
  store i32 %114, ptr %5, align 4
  br label %115

115:                                              ; preds = %107, %103
  br label %116

116:                                              ; preds = %115
  %117 = load i32, ptr %4, align 4
  %118 = add nsw i32 %117, 1
  store i32 %118, ptr %4, align 4
  br label %84, !llvm.loop !24

119:                                              ; preds = %101
  %120 = load ptr, ptr %2, align 8
  %121 = getelementptr inbounds %struct.If_Man_t_, ptr %120, i32 0, i32 1
  %122 = load ptr, ptr %121, align 8
  %123 = getelementptr inbounds %struct.If_Par_t_, ptr %122, i32 0, i32 62
  %124 = load i32, ptr %123, align 8
  store i32 %124, ptr %4, align 4
  br label %125

125:                                              ; preds = %150, %119
  %126 = load i32, ptr %4, align 4
  %127 = load ptr, ptr %2, align 8
  %128 = call i32 @If_ManCoNum(ptr noundef %127)
  %129 = load ptr, ptr %2, align 8
  %130 = getelementptr inbounds %struct.If_Man_t_, ptr %129, i32 0, i32 1
  %131 = load ptr, ptr %130, align 8
  %132 = getelementptr inbounds %struct.If_Par_t_, ptr %131, i32 0, i32 60
  %133 = load i32, ptr %132, align 8
  %134 = sub nsw i32 %128, %133
  %135 = icmp slt i32 %126, %134
  br i1 %135, label %136, label %142

136:                                              ; preds = %125
  %137 = load ptr, ptr %2, align 8
  %138 = getelementptr inbounds %struct.If_Man_t_, ptr %137, i32 0, i32 4
  %139 = load ptr, ptr %138, align 8
  %140 = load i32, ptr %4, align 4
  %141 = call ptr @Vec_PtrEntry(ptr noundef %139, i32 noundef %140)
  store ptr %141, ptr %3, align 8
  br label %142

142:                                              ; preds = %136, %125
  %143 = phi i1 [ false, %125 ], [ true, %136 ]
  br i1 %143, label %144, label %153

144:                                              ; preds = %142
  %145 = load ptr, ptr %3, align 8
  %146 = call ptr @If_ObjFanin0(ptr noundef %145)
  %147 = load i32, ptr %146, align 8
  %148 = and i32 %147, -257
  %149 = or i32 %148, 0
  store i32 %149, ptr %146, align 8
  br label %150

150:                                              ; preds = %144
  %151 = load i32, ptr %4, align 4
  %152 = add nsw i32 %151, 1
  store i32 %152, ptr %4, align 4
  br label %125, !llvm.loop !25

153:                                              ; preds = %142
  %154 = load i32, ptr %5, align 4
  ret i32 %154
}