; Function Attrs: nofree norecurse nosync nounwind memory(readwrite, inaccessiblemem: none) uwtable
define i32 @If_ManCountSpecialPos(ptr noundef readonly captures(none) %0) local_unnamed_addr #0 {
  %2 = getelementptr inbounds nuw i8, ptr %0, i64 8
  %3 = load ptr, ptr %2, align 8
  %4 = getelementptr inbounds nuw i8, ptr %3, i64 256
  %5 = load i32, ptr %4, align 8
  %6 = getelementptr i8, ptr %0, i64 76
  %.val5160 = load i32, ptr %6, align 4
  %7 = getelementptr inbounds nuw i8, ptr %3, i64 248
  %8 = load i32, ptr %7, align 8
  %9 = sub nsw i32 %.val5160, %8
  %10 = icmp slt i32 %5, %9
  br i1 %10, label %.lr.ph, label %.critedge

.lr.ph:                                           ; preds = %1
  %11 = getelementptr inbounds nuw i8, ptr %0, i64 32
  %12 = sext i32 %5 to i64
  br label %13

13:                                               ; preds = %.lr.ph, %13
  %indvars.iv = phi i64 [ %12, %.lr.ph ], [ %indvars.iv.next, %13 ]
  %14 = load ptr, ptr %11, align 8
  %15 = getelementptr i8, ptr %14, i64 8
  %.val46 = load ptr, ptr %15, align 8
  %16 = getelementptr inbounds ptr, ptr %.val46, i64 %indvars.iv
  %17 = load ptr, ptr %16, align 8
  %18 = getelementptr i8, ptr %17, i64 24
  %.val50 = load ptr, ptr %18, align 8
  %19 = load i32, ptr %.val50, align 8
  %20 = and i32 %19, -257
  store i32 %20, ptr %.val50, align 8
  %indvars.iv.next = add nsw i64 %indvars.iv, 1
  %.val51 = load i32, ptr %6, align 4
  %21 = load ptr, ptr %2, align 8
  %22 = getelementptr inbounds nuw i8, ptr %21, i64 248
  %23 = load i32, ptr %22, align 8
  %24 = sub nsw i32 %.val51, %23
  %25 = sext i32 %24 to i64
  %26 = icmp slt i64 %indvars.iv.next, %25
  br i1 %26, label %13, label %.critedge.loopexit, !llvm.loop !22

.critedge.loopexit:                               ; preds = %13
  %.phi.trans.insert = getelementptr inbounds nuw i8, ptr %21, i64 256
  %.pre = load i32, ptr %.phi.trans.insert, align 8
  br label %.critedge

.critedge:                                        ; preds = %.critedge.loopexit, %1
  %.pre-phi = phi i32 [ %24, %.critedge.loopexit ], [ %9, %1 ]
  %27 = phi i32 [ %23, %.critedge.loopexit ], [ %8, %1 ]
  %.val5262 = phi i32 [ %.val51, %.critedge.loopexit ], [ %.val5160, %1 ]
  %28 = phi i32 [ %.pre, %.critedge.loopexit ], [ %5, %1 ]
  %29 = phi ptr [ %21, %.critedge.loopexit ], [ %3, %1 ]
  %30 = icmp slt i32 %28, %.pre-phi
  br i1 %30, label %.lr.ph64, label %.critedge2

.lr.ph64:                                         ; preds = %.critedge
  %31 = getelementptr inbounds nuw i8, ptr %0, i64 32
  %32 = sext i32 %28 to i64
  br label %33

33:                                               ; preds = %.lr.ph64, %44
  %34 = phi ptr [ %29, %.lr.ph64 ], [ %45, %44 ]
  %.val5288 = phi i32 [ %.val5262, %.lr.ph64 ], [ %.val52, %44 ]
  %indvars.iv78 = phi i64 [ %32, %.lr.ph64 ], [ %indvars.iv.next79, %44 ]
  %35 = load ptr, ptr %31, align 8
  %36 = getelementptr i8, ptr %35, i64 8
  %.val45 = load ptr, ptr %36, align 8
  %37 = getelementptr inbounds ptr, ptr %.val45, i64 %indvars.iv78
  %38 = load ptr, ptr %37, align 8
  %.val55 = load i32, ptr %38, align 8
  %39 = and i32 %.val55, 16
  %.not43 = icmp eq i32 %39, 0
  br i1 %.not43, label %40, label %44

40:                                               ; preds = %33
  %41 = getelementptr i8, ptr %38, i64 24
  %.val49 = load ptr, ptr %41, align 8
  %42 = load i32, ptr %.val49, align 8
  %43 = or i32 %42, 256
  store i32 %43, ptr %.val49, align 8
  %.val52.pre = load i32, ptr %6, align 4
  %.pre90 = load ptr, ptr %2, align 8
  br label %44

44:                                               ; preds = %33, %40
  %45 = phi ptr [ %34, %33 ], [ %.pre90, %40 ]
  %.val52 = phi i32 [ %.val5288, %33 ], [ %.val52.pre, %40 ]
  %indvars.iv.next79 = add nsw i64 %indvars.iv78, 1
  %46 = getelementptr inbounds nuw i8, ptr %45, i64 248
  %47 = load i32, ptr %46, align 8
  %48 = sub nsw i32 %.val52, %47
  %49 = sext i32 %48 to i64
  %50 = icmp slt i64 %indvars.iv.next79, %49
  br i1 %50, label %33, label %.critedge2.loopexit, !llvm.loop !23

.critedge2.loopexit:                              ; preds = %44
  %.phi.trans.insert91 = getelementptr inbounds nuw i8, ptr %45, i64 256
  %.pre92 = load i32, ptr %.phi.trans.insert91, align 8
  br label %.critedge2

.critedge2:                                       ; preds = %.critedge2.loopexit, %.critedge
  %51 = phi i32 [ %27, %.critedge ], [ %47, %.critedge2.loopexit ]
  %.val5471 = phi i32 [ %.val5262, %.critedge ], [ %.val52, %.critedge2.loopexit ]
  %52 = phi i32 [ %28, %.critedge ], [ %.pre92, %.critedge2.loopexit ]
  %.lcssa = phi i32 [ %.pre-phi, %.critedge ], [ %48, %.critedge2.loopexit ]
  %53 = icmp slt i32 %52, %.lcssa
  br i1 %53, label %.lr.ph69, label %.critedge4.preheader

.lr.ph69:                                         ; preds = %.critedge2
  %54 = getelementptr inbounds nuw i8, ptr %0, i64 32
  %55 = load ptr, ptr %54, align 8
  %56 = getelementptr i8, ptr %55, i64 8
  %.val44 = load ptr, ptr %56, align 8
  %57 = sext i32 %52 to i64
  %wide.trip.count = sext i32 %.lcssa to i64
  br label %62

.critedge4.preheader:                             ; preds = %72, %.critedge2
  %.0.lcssa = phi i32 [ 0, %.critedge2 ], [ %.1, %72 ]
  %58 = sub nsw i32 %.val5471, %51
  %59 = icmp slt i32 %52, %58
  br i1 %59, label %.lr.ph73, label %.critedge6

.lr.ph73:                                         ; preds = %.critedge4.preheader
  %60 = getelementptr inbounds nuw i8, ptr %0, i64 32
  %61 = sext i32 %52 to i64
  br label %.critedge4

62:                                               ; preds = %.lr.ph69, %72
  %indvars.iv81 = phi i64 [ %57, %.lr.ph69 ], [ %indvars.iv.next82, %72 ]
  %.068 = phi i32 [ 0, %.lr.ph69 ], [ %.1, %72 ]
  %63 = getelementptr inbounds ptr, ptr %.val44, i64 %indvars.iv81
  %64 = load ptr, ptr %63, align 8
  %.val56 = load i32, ptr %64, align 8
  %65 = and i32 %.val56, 16
  %.not = icmp eq i32 %65, 0
  br i1 %.not, label %72, label %66

66:                                               ; preds = %62
  %67 = getelementptr i8, ptr %64, i64 24
  %.val48 = load ptr, ptr %67, align 8
  %68 = load i32, ptr %.val48, align 8
  %69 = lshr i32 %68, 8
  %70 = and i32 %69, 1
  %71 = add nsw i32 %70, %.068
  br label %72

72:                                               ; preds = %62, %66
  %.1 = phi i32 [ %71, %66 ], [ %.068, %62 ]
  %indvars.iv.next82 = add nsw i64 %indvars.iv81, 1
  %exitcond.not = icmp eq i64 %indvars.iv.next82, %wide.trip.count
  br i1 %exitcond.not, label %.critedge4.preheader, label %62, !llvm.loop !24

.critedge4:                                       ; preds = %.lr.ph73, %.critedge4
  %indvars.iv84 = phi i64 [ %61, %.lr.ph73 ], [ %indvars.iv.next85, %.critedge4 ]
  %73 = load ptr, ptr %60, align 8
  %74 = getelementptr i8, ptr %73, i64 8
  %.val = load ptr, ptr %74, align 8
  %75 = getelementptr inbounds ptr, ptr %.val, i64 %indvars.iv84
  %76 = load ptr, ptr %75, align 8
  %77 = getelementptr i8, ptr %76, i64 24
  %.val47 = load ptr, ptr %77, align 8
  %78 = load i32, ptr %.val47, align 8
  %79 = and i32 %78, -257
  store i32 %79, ptr %.val47, align 8
  %indvars.iv.next85 = add nsw i64 %indvars.iv84, 1
  %.val54 = load i32, ptr %6, align 4
  %80 = load ptr, ptr %2, align 8
  %81 = getelementptr inbounds nuw i8, ptr %80, i64 248
  %82 = load i32, ptr %81, align 8
  %83 = sub nsw i32 %.val54, %82
  %84 = sext i32 %83 to i64
  %85 = icmp slt i64 %indvars.iv.next85, %84
  br i1 %85, label %.critedge4, label %.critedge6, !llvm.loop !25

.critedge6:                                       ; preds = %.critedge4, %.critedge4.preheader
  ret i32 %.0.lcssa
}